target datalayout = "e-m:e-p270:32:32-p271:32:32-p272:64:64-i64:64-i128:128-f80:128-n8:16:32:64-S128"
target triple = "x86_64-pc-linux-gnu"

%"struct.Luau::CodeGen::X64::RegisterX64" = type { i8 }
%"struct.Luau::CodeGen::X64::OperandX64" = type { i8, %"struct.Luau::CodeGen::X64::RegisterX64", %"struct.Luau::CodeGen::X64::RegisterX64", i8, i32 }
%class.anon.590 = type { i8 }

@_ZN4Luau7CodeGen3X64L3raxE = internal constant %"struct.Luau::CodeGen::X64::RegisterX64" { i8 4 }, align 1
@_ZN4Luau7CodeGen3X64L5noregE = internal constant %"struct.Luau::CodeGen::X64::RegisterX64" { i8 -128 }, align 1
@_ZN4Luau7CodeGen3X64L4xmm2E = internal constant %"struct.Luau::CodeGen::X64::RegisterX64" { i8 21 }, align 1
@_ZN4Luau7CodeGen3X64L4xmm3E = internal constant %"struct.Luau::CodeGen::X64::RegisterX64" { i8 29 }, align 1
@_ZN4Luau7CodeGen3X64L4xmm4E = internal constant %"struct.Luau::CodeGen::X64::RegisterX64" { i8 37 }, align 1
@_ZN4Luau7CodeGen3X64L4xmm5E = internal constant %"struct.Luau::CodeGen::X64::RegisterX64" { i8 45 }, align 1
@__const._ZZN12_GLOBAL__N_121DOCTEST_ANON_CLASS_741fEvENKUlRN4Luau7CodeGen3X6418AssemblyBuilderX64EE_clES5_.arr = private unnamed_addr constant [16 x i8] c"hello world!123\00", align 16

; Function Attrs: mustprogress nounwind uwtable
define linkonce_odr dso_local void @_ZN4Luau7CodeGen3X6410OperandX64C2ENS1_11RegisterX64E(ptr noundef nonnull align 4 dereferenceable(8) %0, i8 %1) unnamed_addr #1 comdat align 2 {
  %3 = alloca %"struct.Luau::CodeGen::X64::RegisterX64", align 1
  %4 = alloca ptr, align 8
  %5 = getelementptr inbounds %"struct.Luau::CodeGen::X64::RegisterX64", ptr %3, i32 0, i32 0
  store i8 %1, ptr %5, align 1
  store ptr %0, ptr %4, align 8
  %6 = load ptr, ptr %4, align 8
  %7 = getelementptr inbounds %"struct.Luau::CodeGen::X64::OperandX64", ptr %6, i32 0, i32 0
  store i8 0, ptr %7, align 4
  %8 = getelementptr inbounds %"struct.Luau::CodeGen::X64::OperandX64", ptr %6, i32 0, i32 1
  call void @llvm.memcpy.p0.p0.i64(ptr align 1 %8, ptr align 1 @_ZN4Luau7CodeGen3X64L5noregE, i64 1, i1 false)
  %9 = getelementptr inbounds %"struct.Luau::CodeGen::X64::OperandX64", ptr %6, i32 0, i32 2
  call void @llvm.memcpy.p0.p0.i64(ptr align 2 %9, ptr align 1 %3, i64 1, i1 false)
  %10 = getelementptr inbounds %"struct.Luau::CodeGen::X64::OperandX64", ptr %6, i32 0, i32 3
  %11 = load i8, ptr %10, align 1
  %12 = and i8 %11, -16
  %13 = or i8 %12, 0
  store i8 %13, ptr %10, align 1
  %14 = getelementptr inbounds %"struct.Luau::CodeGen::X64::OperandX64", ptr %6, i32 0, i32 3
  %15 = load i8, ptr %14, align 1
  %16 = and i8 %15, 15
  %17 = or i8 %16, 16
  store i8 %17, ptr %14, align 1
  %18 = getelementptr inbounds %"struct.Luau::CodeGen::X64::OperandX64", ptr %6, i32 0, i32 4
  store i32 0, ptr %18, align 4
  ret void
}

; Function Attrs: mustprogress uwtable
define internal void @_ZZN12_GLOBAL__N_121DOCTEST_ANON_CLASS_741fEvENKUlRN4Luau7CodeGen3X6418AssemblyBuilderX64EE_clES5_(ptr noundef nonnull align 1 dereferenceable(1) %0, ptr noundef nonnull align 8 dereferenceable(252) %1) #4 align 2 {
  %3 = alloca ptr, align 8
  %4 = alloca ptr, align 8
  %5 = alloca %"struct.Luau::CodeGen::X64::OperandX64", align 4
  %6 = alloca %"struct.Luau::CodeGen::X64::RegisterX64", align 1
  %7 = alloca %"struct.Luau::CodeGen::X64::OperandX64", align 4
  %8 = alloca %"struct.Luau::CodeGen::X64::RegisterX64", align 1
  %9 = alloca %"struct.Luau::CodeGen::X64::OperandX64", align 4
  %10 = alloca %"struct.Luau::CodeGen::X64::RegisterX64", align 1
  %11 = alloca %"struct.Luau::CodeGen::X64::OperandX64", align 4
  %12 = alloca %"struct.Luau::CodeGen::X64::OperandX64", align 4
  %13 = alloca %"struct.Luau::CodeGen::X64::RegisterX64", align 1
  %14 = alloca %"struct.Luau::CodeGen::X64::OperandX64", align 4
  %15 = alloca %"struct.Luau::CodeGen::X64::OperandX64", align 4
  %16 = alloca %"struct.Luau::CodeGen::X64::RegisterX64", align 1
  %17 = alloca %"struct.Luau::CodeGen::X64::OperandX64", align 4
  %18 = alloca %"struct.Luau::CodeGen::X64::OperandX64", align 4
  %19 = alloca %"struct.Luau::CodeGen::X64::RegisterX64", align 1
  %20 = alloca %"struct.Luau::CodeGen::X64::OperandX64", align 4
  %21 = alloca [16 x i8], align 16
  %22 = alloca %"struct.Luau::CodeGen::X64::OperandX64", align 4
  %23 = alloca %"struct.Luau::CodeGen::X64::RegisterX64", align 1
  %24 = alloca %"struct.Luau::CodeGen::X64::OperandX64", align 4
  %25 = alloca %"struct.Luau::CodeGen::X64::OperandX64", align 4
  %26 = alloca %"struct.Luau::CodeGen::X64::RegisterX64", align 1
  %27 = alloca %"struct.Luau::CodeGen::X64::OperandX64", align 4
  store ptr %0, ptr %3, align 8
  store ptr %1, ptr %4, align 8
  %28 = load ptr, ptr %4, align 8
  call void @llvm.memcpy.p0.p0.i64(ptr align 1 %6, ptr align 1 @_ZN4Luau7CodeGen3X64L3raxE, i64 1, i1 false)
  %29 = getelementptr inbounds %"struct.Luau::CodeGen::X64::RegisterX64", ptr %6, i32 0, i32 0
  %30 = load i8, ptr %29, align 1
  call void @_ZN4Luau7CodeGen3X6410OperandX64C2ENS1_11RegisterX64E(ptr noundef nonnull align 4 dereferenceable(8) %5, i8 %30)
  call void @llvm.memcpy.p0.p0.i64(ptr align 1 %8, ptr align 1 @_ZN4Luau7CodeGen3X64L3raxE, i64 1, i1 false)
  %31 = getelementptr inbounds %"struct.Luau::CodeGen::X64::RegisterX64", ptr %8, i32 0, i32 0
  %32 = load i8, ptr %31, align 1
  call void @_ZN4Luau7CodeGen3X6410OperandX64C2ENS1_11RegisterX64E(ptr noundef nonnull align 4 dereferenceable(8) %7, i8 %32)
  %33 = load i64, ptr %5, align 4
  %34 = load i64, ptr %7, align 4
  call void @_ZN4Luau7CodeGen3X6418AssemblyBuilderX644xor_ENS1_10OperandX64ES3_(ptr noundef nonnull align 8 dereferenceable(252) %28, i64 %33, i64 %34)
  %35 = load ptr, ptr %4, align 8
  call void @llvm.memcpy.p0.p0.i64(ptr align 1 %10, ptr align 1 @_ZN4Luau7CodeGen3X64L3raxE, i64 1, i1 false)
  %36 = getelementptr inbounds %"struct.Luau::CodeGen::X64::RegisterX64", ptr %10, i32 0, i32 0
  %37 = load i8, ptr %36, align 1
  call void @_ZN4Luau7CodeGen3X6410OperandX64C2ENS1_11RegisterX64E(ptr noundef nonnull align 4 dereferenceable(8) %9, i8 %37)
  %38 = load ptr, ptr %4, align 8
  %39 = call i64 @_ZN4Luau7CodeGen3X6418AssemblyBuilderX643i64El(ptr noundef nonnull align 8 dereferenceable(252) %38, i64 noundef 1311768467139281697)
  store i64 %39, ptr %11, align 4
  %40 = load i64, ptr %9, align 4
  %41 = load i64, ptr %11, align 4
  call void @_ZN4Luau7CodeGen3X6418AssemblyBuilderX643addENS1_10OperandX64ES3_(ptr noundef nonnull align 8 dereferenceable(252) %35, i64 %40, i64 %41)
  %42 = load ptr, ptr %4, align 8
  call void @llvm.memcpy.p0.p0.i64(ptr align 1 %13, ptr align 1 @_ZN4Luau7CodeGen3X64L4xmm2E, i64 1, i1 false)
  %43 = getelementptr inbounds %"struct.Luau::CodeGen::X64::RegisterX64", ptr %13, i32 0, i32 0
  %44 = load i8, ptr %43, align 1
  call void @_ZN4Luau7CodeGen3X6410OperandX64C2ENS1_11RegisterX64E(ptr noundef nonnull align 4 dereferenceable(8) %12, i8 %44)
  %45 = load ptr, ptr %4, align 8
  %46 = call i64 @_ZN4Luau7CodeGen3X6418AssemblyBuilderX643f32Ef(ptr noundef nonnull align 8 dereferenceable(252) %45, float noundef 1.000000e+00)
  store i64 %46, ptr %14, align 4
  %47 = load i64, ptr %12, align 4
  %48 = load i64, ptr %14, align 4
  call void @_ZN4Luau7CodeGen3X6418AssemblyBuilderX646vmovssENS1_10OperandX64ES3_(ptr noundef nonnull align 8 dereferenceable(252) %42, i64 %47, i64 %48)
  %49 = load ptr, ptr %4, align 8
  call void @llvm.memcpy.p0.p0.i64(ptr align 1 %16, ptr align 1 @_ZN4Luau7CodeGen3X64L4xmm3E, i64 1, i1 false)
  %50 = getelementptr inbounds %"struct.Luau::CodeGen::X64::RegisterX64", ptr %16, i32 0, i32 0
  %51 = load i8, ptr %50, align 1
  call void @_ZN4Luau7CodeGen3X6410OperandX64C2ENS1_11RegisterX64E(ptr noundef nonnull align 4 dereferenceable(8) %15, i8 %51)
  %52 = load ptr, ptr %4, align 8
  %53 = call i64 @_ZN4Luau7CodeGen3X6418AssemblyBuilderX643f64Ed(ptr noundef nonnull align 8 dereferenceable(252) %52, double noundef 1.000000e+00)
  store i64 %53, ptr %17, align 4
  %54 = load i64, ptr %15, align 4
  %55 = load i64, ptr %17, align 4
  call void @_ZN4Luau7CodeGen3X6418AssemblyBuilderX646vmovsdENS1_10OperandX64ES3_(ptr noundef nonnull align 8 dereferenceable(252) %49, i64 %54, i64 %55)
  %56 = load ptr, ptr %4, align 8
  call void @llvm.memcpy.p0.p0.i64(ptr align 1 %19, ptr align 1 @_ZN4Luau7CodeGen3X64L4xmm4E, i64 1, i1 false)
  %57 = getelementptr inbounds %"struct.Luau::CodeGen::X64::RegisterX64", ptr %19, i32 0, i32 0
  %58 = load i8, ptr %57, align 1
  call void @_ZN4Luau7CodeGen3X6410OperandX64C2ENS1_11RegisterX64E(ptr noundef nonnull align 4 dereferenceable(8) %18, i8 %58)
  %59 = load ptr, ptr %4, align 8
  %60 = call i64 @_ZN4Luau7CodeGen3X6418AssemblyBuilderX645f32x4Effff(ptr noundef nonnull align 8 dereferenceable(252) %59, float noundef 1.000000e+00, float noundef 2.000000e+00, float noundef 4.000000e+00, float noundef 8.000000e+00)
  store i64 %60, ptr %20, align 4
  %61 = load i64, ptr %18, align 4
  %62 = load i64, ptr %20, align 4
  call void @_ZN4Luau7CodeGen3X6418AssemblyBuilderX647vmovapsENS1_10OperandX64ES3_(ptr noundef nonnull align 8 dereferenceable(252) %56, i64 %61, i64 %62)
  call void @llvm.memcpy.p0.p0.i64(ptr align 16 %21, ptr align 16 @__const._ZZN12_GLOBAL__N_121DOCTEST_ANON_CLASS_741fEvENKUlRN4Luau7CodeGen3X6418AssemblyBuilderX64EE_clES5_.arr, i64 16, i1 false)
  %63 = load ptr, ptr %4, align 8
  call void @llvm.memcpy.p0.p0.i64(ptr align 1 %23, ptr align 1 @_ZN4Luau7CodeGen3X64L4xmm5E, i64 1, i1 false)
  %64 = getelementptr inbounds %"struct.Luau::CodeGen::X64::RegisterX64", ptr %23, i32 0, i32 0
  %65 = load i8, ptr %64, align 1
  call void @_ZN4Luau7CodeGen3X6410OperandX64C2ENS1_11RegisterX64E(ptr noundef nonnull align 4 dereferenceable(8) %22, i8 %65)
  %66 = load ptr, ptr %4, align 8
  %67 = getelementptr inbounds [16 x i8], ptr %21, i64 0, i64 0
  %68 = call i64 @_ZN4Luau7CodeGen3X6418AssemblyBuilderX645bytesEPKvmm(ptr noundef nonnull align 8 dereferenceable(252) %66, ptr noundef %67, i64 noundef 16, i64 noundef 8)
  store i64 %68, ptr %24, align 4
  %69 = load i64, ptr %22, align 4
  %70 = load i64, ptr %24, align 4
  call void @_ZN4Luau7CodeGen3X6418AssemblyBuilderX647vmovupdENS1_10OperandX64ES3_(ptr noundef nonnull align 8 dereferenceable(252) %63, i64 %69, i64 %70)
  %71 = load ptr, ptr %4, align 8
  call void @llvm.memcpy.p0.p0.i64(ptr align 1 %26, ptr align 1 @_ZN4Luau7CodeGen3X64L4xmm5E, i64 1, i1 false)
  %72 = getelementptr inbounds %"struct.Luau::CodeGen::X64::RegisterX64", ptr %26, i32 0, i32 0
  %73 = load i8, ptr %72, align 1
  call void @_ZN4Luau7CodeGen3X6410OperandX64C2ENS1_11RegisterX64E(ptr noundef nonnull align 4 dereferenceable(8) %25, i8 %73)
  %74 = load ptr, ptr %4, align 8
  %75 = call i64 @_ZN4Luau7CodeGen3X6418AssemblyBuilderX645f64x2Edd(ptr noundef nonnull align 8 dereferenceable(252) %74, double noundef 5.000000e+00, double noundef 6.000000e+00)
  store i64 %75, ptr %27, align 4
  %76 = load i64, ptr %25, align 4
  %77 = load i64, ptr %27, align 4
  call void @_ZN4Luau7CodeGen3X6418AssemblyBuilderX647vmovapdENS1_10OperandX64ES3_(ptr noundef nonnull align 8 dereferenceable(252) %71, i64 %76, i64 %77)
  %78 = load ptr, ptr %4, align 8
  call void @_ZN4Luau7CodeGen3X6418AssemblyBuilderX643retEv(ptr noundef nonnull align 8 dereferenceable(252) %78)
  ret void
}

; Function Attrs: mustprogress uwtable
define internal void @_ZZN12_GLOBAL__N_121DOCTEST_ANON_CLASS_741fEvENUlRN4Luau7CodeGen3X6418AssemblyBuilderX64EE_8__invokeES5_(ptr noundef nonnull align 8 dereferenceable(252) %0) #4 align 2 {
  %2 = alloca ptr, align 8
  %3 = alloca %class.anon.590, align 1
  store ptr %0, ptr %2, align 8
  %4 = load ptr, ptr %2, align 8
  call void @_ZZN12_GLOBAL__N_121DOCTEST_ANON_CLASS_741fEvENKUlRN4Luau7CodeGen3X6418AssemblyBuilderX64EE_clES5_(ptr noundef nonnull align 1 dereferenceable(1) %3, ptr noundef nonnull align 8 dereferenceable(252) %4)
  ret void
}