; Function Attrs: mustprogress uwtable
define internal void @_ZZN12_GLOBAL__N_121DOCTEST_ANON_CLASS_741fEvENUlRN4Luau7CodeGen3X6418AssemblyBuilderX64EE_8__invokeES5_(ptr noundef nonnull align 8 dereferenceable(252) %0) #2 align 2 {
  %2 = alloca [16 x i8], align 16
  call void @llvm.lifetime.start.p0(i64 16, ptr nonnull %2)
  tail call void @_ZN4Luau7CodeGen3X6418AssemblyBuilderX644xor_ENS1_10OperandX64ES3_(ptr noundef nonnull align 8 dereferenceable(252) %0, i64 268730368, i64 268730368)
  %3 = tail call i64 @_ZN4Luau7CodeGen3X6418AssemblyBuilderX643i64El(ptr noundef nonnull align 8 dereferenceable(252) %0, i64 noundef 1311768467139281697)
  tail call void @_ZN4Luau7CodeGen3X6418AssemblyBuilderX643addENS1_10OperandX64ES3_(ptr noundef nonnull align 8 dereferenceable(252) %0, i64 268730368, i64 %3)
  %4 = tail call i64 @_ZN4Luau7CodeGen3X6418AssemblyBuilderX643f32Ef(ptr noundef nonnull align 8 dereferenceable(252) %0, float noundef 1.000000e+00)
  tail call void @_ZN4Luau7CodeGen3X6418AssemblyBuilderX646vmovssENS1_10OperandX64ES3_(ptr noundef nonnull align 8 dereferenceable(252) %0, i64 269844480, i64 %4)
  %5 = tail call i64 @_ZN4Luau7CodeGen3X6418AssemblyBuilderX643f64Ed(ptr noundef nonnull align 8 dereferenceable(252) %0, double noundef 1.000000e+00)
  tail call void @_ZN4Luau7CodeGen3X6418AssemblyBuilderX646vmovsdENS1_10OperandX64ES3_(ptr noundef nonnull align 8 dereferenceable(252) %0, i64 270368768, i64 %5)
  %6 = tail call i64 @_ZN4Luau7CodeGen3X6418AssemblyBuilderX645f32x4Effff(ptr noundef nonnull align 8 dereferenceable(252) %0, float noundef 1.000000e+00, float noundef 2.000000e+00, float noundef 4.000000e+00, float noundef 8.000000e+00)
  tail call void @_ZN4Luau7CodeGen3X6418AssemblyBuilderX647vmovapsENS1_10OperandX64ES3_(ptr noundef nonnull align 8 dereferenceable(252) %0, i64 270893056, i64 %6)
  call void @llvm.memcpy.p0.p0.i64(ptr noundef nonnull align 16 dereferenceable(16) %2, ptr noundef nonnull align 16 dereferenceable(16) @__const._ZZN12_GLOBAL__N_121DOCTEST_ANON_CLASS_741fEvENKUlRN4Luau7CodeGen3X6418AssemblyBuilderX64EE_clES5_.arr, i64 16, i1 false)
  %7 = call i64 @_ZN4Luau7CodeGen3X6418AssemblyBuilderX645bytesEPKvmm(ptr noundef nonnull align 8 dereferenceable(252) %0, ptr noundef nonnull %2, i64 noundef 16, i64 noundef 8)
  call void @_ZN4Luau7CodeGen3X6418AssemblyBuilderX647vmovupdENS1_10OperandX64ES3_(ptr noundef nonnull align 8 dereferenceable(252) %0, i64 271417344, i64 %7)
  %8 = call i64 @_ZN4Luau7CodeGen3X6418AssemblyBuilderX645f64x2Edd(ptr noundef nonnull align 8 dereferenceable(252) %0, double noundef 5.000000e+00, double noundef 6.000000e+00)
  call void @_ZN4Luau7CodeGen3X6418AssemblyBuilderX647vmovapdENS1_10OperandX64ES3_(ptr noundef nonnull align 8 dereferenceable(252) %0, i64 271417344, i64 %8)
  call void @_ZN4Luau7CodeGen3X6418AssemblyBuilderX643retEv(ptr noundef nonnull align 8 dereferenceable(252) %0)
  call void @llvm.lifetime.end.p0(i64 16, ptr nonnull %2)
  ret void
}